target datalayout = "e-m:e-p270:32:32-p271:32:32-p272:64:64-i64:64-i128:128-f80:128-n8:16:32:64-S128"
target triple = "x86_64-pc-linux-gnu"

%struct.UConverterAlias = type { ptr, ptr, ptr, ptr, ptr, ptr, ptr, ptr, ptr, i32, i32, i32, i32, i32, i32, i32, i32, i32 }
%struct.UEnumeration = type { ptr, ptr, ptr, ptr, ptr, ptr, ptr }
%struct.UAliasContext = type { i32, i32 }

@_ZL10gMainTable = internal global %struct.UConverterAlias zeroinitializer, align 8

; Function Attrs: inlinehint mustprogress nounwind uwtable
define internal noundef signext i8 @_ZL7isAliasPKcP10UErrorCode(ptr noundef %0, ptr noundef %1) #3 {
  %3 = alloca i8, align 1
  %4 = alloca ptr, align 8
  %5 = alloca ptr, align 8
  store ptr %0, ptr %4, align 8, !tbaa !3
  store ptr %1, ptr %5, align 8, !tbaa !17
  %6 = load ptr, ptr %4, align 8, !tbaa !3
  %7 = icmp eq ptr %6, null
  br i1 %7, label %8, label %10

8:                                                ; preds = %2
  %9 = load ptr, ptr %5, align 8, !tbaa !17
  store i32 1, ptr %9, align 4, !tbaa !26
  store i8 0, ptr %3, align 1
  br label %16

10:                                               ; preds = %2
  %11 = load ptr, ptr %4, align 8, !tbaa !3
  %12 = load i8, ptr %11, align 1, !tbaa !8
  %13 = sext i8 %12 to i32
  %14 = icmp ne i32 %13, 0
  %15 = zext i1 %14 to i8
  store i8 %15, ptr %3, align 1
  br label %16

16:                                               ; preds = %10, %8
  %17 = load i8, ptr %3, align 1
  ret i8 %17
}

; Function Attrs: mustprogress uwtable
define ptr @ucnv_openStandardNames_77(ptr noundef %0, ptr noundef %1, ptr noundef %2) #2 {
  %4 = alloca ptr, align 8
  %5 = alloca ptr, align 8
  %6 = alloca ptr, align 8
  %7 = alloca ptr, align 8
  %8 = alloca ptr, align 8
  %9 = alloca i32, align 4
  %10 = alloca ptr, align 8
  %11 = alloca i32, align 4
  store ptr %0, ptr %5, align 8, !tbaa !3
  store ptr %1, ptr %6, align 8, !tbaa !3
  store ptr %2, ptr %7, align 8, !tbaa !17
  call void @llvm.lifetime.start.p0(i64 8, ptr %8) #12
  store ptr null, ptr %8, align 8, !tbaa !37
  %12 = load ptr, ptr %7, align 8, !tbaa !17
  %13 = call noundef signext i8 @_ZL13haveAliasDataP10UErrorCode(ptr noundef %12)
  %14 = icmp ne i8 %13, 0
  br i1 %14, label %15, label %61

15:                                               ; preds = %3
  %16 = load ptr, ptr %5, align 8, !tbaa !3
  %17 = load ptr, ptr %7, align 8, !tbaa !17
  %18 = call noundef signext i8 @_ZL7isAliasPKcP10UErrorCode(ptr noundef %16, ptr noundef %17)
  %19 = icmp ne i8 %18, 0
  br i1 %19, label %20, label %61

20:                                               ; preds = %15
  call void @llvm.lifetime.start.p0(i64 4, ptr %9) #12
  %21 = load ptr, ptr %5, align 8, !tbaa !3
  %22 = load ptr, ptr %6, align 8, !tbaa !3
  %23 = load ptr, ptr %7, align 8, !tbaa !17
  %24 = call noundef i32 @_ZL26findTaggedAliasListsOffsetPKcS0_P10UErrorCode(ptr noundef %21, ptr noundef %22, ptr noundef %23)
  store i32 %24, ptr %9, align 4, !tbaa !14
  %25 = load i32, ptr %9, align 4, !tbaa !14
  %26 = load i32, ptr getelementptr inbounds nuw (%struct.UConverterAlias, ptr @_ZL10gMainTable, i32 0, i32 14), align 4, !tbaa !39
  %27 = icmp ult i32 %25, %26
  br i1 %27, label %28, label %57

28:                                               ; preds = %20
  call void @llvm.lifetime.start.p0(i64 8, ptr %10) #12
  %29 = call noalias ptr @uprv_malloc_77(i64 noundef 56) #14
  store ptr %29, ptr %8, align 8, !tbaa !37
  %30 = load ptr, ptr %8, align 8, !tbaa !37
  %31 = icmp eq ptr %30, null
  br i1 %31, label %32, label %34

32:                                               ; preds = %28
  %33 = load ptr, ptr %7, align 8, !tbaa !17
  store i32 7, ptr %33, align 4, !tbaa !26
  store ptr null, ptr %4, align 8
  store i32 1, ptr %11, align 4
  br label %54

34:                                               ; preds = %28
  br label %35

35:                                               ; preds = %34
  %36 = load ptr, ptr %8, align 8, !tbaa !37
  call void @llvm.memcpy.p0.p0.i64(ptr align 8 %36, ptr align 8 @_ZL12gEnumAliases, i64 56, i1 false)
  br label %37

37:                                               ; preds = %35
  br label %38

38:                                               ; preds = %37
  %39 = call noalias ptr @uprv_malloc_77(i64 noundef 8) #14
  store ptr %39, ptr %10, align 8, !tbaa !40
  %40 = load ptr, ptr %10, align 8, !tbaa !40
  %41 = icmp eq ptr %40, null
  br i1 %41, label %42, label %45

42:                                               ; preds = %38
  %43 = load ptr, ptr %7, align 8, !tbaa !17
  store i32 7, ptr %43, align 4, !tbaa !26
  %44 = load ptr, ptr %8, align 8, !tbaa !37
  call void @uprv_free_77(ptr noundef %44)
  store ptr null, ptr %4, align 8
  store i32 1, ptr %11, align 4
  br label %54

45:                                               ; preds = %38
  %46 = load i32, ptr %9, align 4, !tbaa !14
  %47 = load ptr, ptr %10, align 8, !tbaa !40
  %48 = getelementptr inbounds nuw %struct.UAliasContext, ptr %47, i32 0, i32 0
  store i32 %46, ptr %48, align 4, !tbaa !42
  %49 = load ptr, ptr %10, align 8, !tbaa !40
  %50 = getelementptr inbounds nuw %struct.UAliasContext, ptr %49, i32 0, i32 1
  store i32 0, ptr %50, align 4, !tbaa !44
  %51 = load ptr, ptr %10, align 8, !tbaa !40
  %52 = load ptr, ptr %8, align 8, !tbaa !37
  %53 = getelementptr inbounds nuw %struct.UEnumeration, ptr %52, i32 0, i32 1
  store ptr %51, ptr %53, align 8, !tbaa !45
  store i32 0, ptr %11, align 4
  br label %54

54:                                               ; preds = %45, %42, %32
  call void @llvm.lifetime.end.p0(i64 8, ptr %10) #12
  %55 = load i32, ptr %11, align 4
  switch i32 %55, label %58 [
    i32 0, label %56
  ]

56:                                               ; preds = %54
  br label %57

57:                                               ; preds = %56, %20
  store i32 0, ptr %11, align 4
  br label %58

58:                                               ; preds = %57, %54
  call void @llvm.lifetime.end.p0(i64 4, ptr %9) #12
  %59 = load i32, ptr %11, align 4
  switch i32 %59, label %63 [
    i32 0, label %60
  ]

60:                                               ; preds = %58
  br label %61

61:                                               ; preds = %60, %15, %3
  %62 = load ptr, ptr %8, align 8, !tbaa !37
  store ptr %62, ptr %4, align 8
  store i32 1, ptr %11, align 4
  br label %63

63:                                               ; preds = %61, %58
  call void @llvm.lifetime.end.p0(i64 8, ptr %8) #12
  %64 = load ptr, ptr %4, align 8
  ret ptr %64
}