; Function Attrs: mustprogress uwtable
define noundef ptr @ucnv_openStandardNames_77(ptr noundef readonly %0, ptr noundef %1, ptr noundef %2) local_unnamed_addr #3 {
  %4 = tail call fastcc noundef signext i8 @_ZL13haveAliasDataP10UErrorCode(ptr noundef %2)
  %.not = icmp eq i8 %4, 0
  br i1 %.not, label %.critedge, label %5

5:                                                ; preds = %3
  %6 = icmp eq ptr %0, null
  br i1 %6, label %_ZL7isAliasPKcP10UErrorCode.exit.thread, label %_ZL7isAliasPKcP10UErrorCode.exit

_ZL7isAliasPKcP10UErrorCode.exit.thread:          ; preds = %5
  store i32 1, ptr %2, align 4, !tbaa !13
  br label %.critedge

_ZL7isAliasPKcP10UErrorCode.exit:                 ; preds = %5
  %7 = load i8, ptr %0, align 1, !tbaa !3
  %.not36 = icmp eq i8 %7, 0
  br i1 %.not36, label %.critedge, label %8

8:                                                ; preds = %_ZL7isAliasPKcP10UErrorCode.exit
  %9 = tail call fastcc noundef i32 @_ZL26findTaggedAliasListsOffsetPKcS0_P10UErrorCode(ptr noundef nonnull %0, ptr noundef %1, ptr noundef %2)
  %10 = load i32, ptr getelementptr inbounds nuw (i8, ptr @_ZL10gMainTable, i64 92), align 4, !tbaa !31
  %11 = icmp ult i32 %9, %10
  br i1 %11, label %12, label %.critedge

12:                                               ; preds = %8
  %13 = tail call noalias dereferenceable_or_null(56) ptr @uprv_malloc_77(i64 noundef 56) #16
  %14 = icmp eq ptr %13, null
  br i1 %14, label %15, label %16

15:                                               ; preds = %12
  store i32 7, ptr %2, align 4, !tbaa !13
  br label %.critedge

16:                                               ; preds = %12
  tail call void @llvm.memcpy.p0.p0.i64(ptr noundef nonnull align 8 dereferenceable(56) %13, ptr noundef nonnull align 8 dereferenceable(56) @_ZL12gEnumAliases, i64 56, i1 false)
  %17 = tail call noalias dereferenceable_or_null(8) ptr @uprv_malloc_77(i64 noundef 8) #16
  %18 = icmp eq ptr %17, null
  br i1 %18, label %19, label %20

19:                                               ; preds = %16
  store i32 7, ptr %2, align 4, !tbaa !13
  tail call void @uprv_free_77(ptr noundef nonnull %13)
  br label %.critedge

20:                                               ; preds = %16
  store i32 %9, ptr %17, align 4, !tbaa !50
  %21 = getelementptr inbounds nuw i8, ptr %17, i64 4
  store i32 0, ptr %21, align 4, !tbaa !52
  %22 = getelementptr inbounds nuw i8, ptr %13, i64 8
  store ptr %17, ptr %22, align 8, !tbaa !53
  br label %.critedge

.critedge:                                        ; preds = %15, %19, %20, %8, %_ZL7isAliasPKcP10UErrorCode.exit.thread, %3, %_ZL7isAliasPKcP10UErrorCode.exit
  %.3 = phi ptr [ null, %_ZL7isAliasPKcP10UErrorCode.exit ], [ null, %3 ], [ null, %_ZL7isAliasPKcP10UErrorCode.exit.thread ], [ null, %15 ], [ null, %19 ], [ null, %8 ], [ %13, %20 ]
  ret ptr %.3
}